target datalayout = "e-m:e-p270:32:32-p271:32:32-p272:64:64-i64:64-i128:128-f80:128-n8:16:32:64-S128"
target triple = "x86_64-pc-linux-gnu"

; Function Attrs: nounwind uwtable
define internal void @put_mspel8_mc30_c(ptr noundef %0, ptr noundef %1, i64 noundef %2) #1 {
  %4 = alloca ptr, align 8
  %5 = alloca ptr, align 8
  %6 = alloca i64, align 8
  %7 = alloca [64 x i8], align 16
  store ptr %0, ptr %4, align 8, !tbaa !15
  store ptr %1, ptr %5, align 8, !tbaa !15
  store i64 %2, ptr %6, align 8, !tbaa !17
  call void @llvm.lifetime.start.p0(i64 64, ptr %7) #5
  %8 = getelementptr inbounds [64 x i8], ptr %7, i64 0, i64 0
  %9 = load ptr, ptr %5, align 8, !tbaa !15
  %10 = load i64, ptr %6, align 8, !tbaa !17
  %11 = trunc i64 %10 to i32
  call void @wmv2_mspel8_h_lowpass(ptr noundef %8, ptr noundef %9, i32 noundef 8, i32 noundef %11, i32 noundef 8)
  %12 = load ptr, ptr %4, align 8, !tbaa !15
  %13 = load ptr, ptr %5, align 8, !tbaa !15
  %14 = getelementptr inbounds i8, ptr %13, i64 1
  %15 = getelementptr inbounds [64 x i8], ptr %7, i64 0, i64 0
  %16 = load i64, ptr %6, align 8, !tbaa !17
  %17 = trunc i64 %16 to i32
  %18 = load i64, ptr %6, align 8, !tbaa !17
  %19 = trunc i64 %18 to i32
  call void @ff_put_pixels8_l2_8(ptr noundef %12, ptr noundef %14, ptr noundef %15, i32 noundef %17, i32 noundef %19, i32 noundef 8, i32 noundef 8)
  call void @llvm.lifetime.end.p0(i64 64, ptr %7) #5
  ret void
}