; Function Attrs: nounwind uwtable
define internal void @put_mspel8_mc30_c(ptr noundef %0, ptr noundef %1, i64 noundef %2) #3 {
  %4 = alloca [64 x i8], align 16
  call void @llvm.lifetime.start.p0(i64 64, ptr nonnull %4) #6
  %5 = trunc i64 %2 to i32
  call fastcc void @wmv2_mspel8_h_lowpass(ptr noundef nonnull %4, ptr noundef %1, i32 noundef 8, i32 noundef %5, i32 noundef 8)
  %6 = getelementptr inbounds nuw i8, ptr %1, i64 1
  call void @ff_put_pixels8_l2_8(ptr noundef %0, ptr noundef nonnull %6, ptr noundef nonnull %4, i32 noundef %5, i32 noundef %5, i32 noundef 8, i32 noundef 8) #6
  call void @llvm.lifetime.end.p0(i64 64, ptr nonnull %4) #6
  ret void
}